; ModuleID = 'bench/cpython/original/gc_gil.ll'
source_filename = "bench/cpython/original/gc_gil.ll"
target datalayout = "e-m:e-p270:32:32-p271:32:32-p272:64:64-i64:64-i128:128-f80:128-n8:16:32:64-S128"
target triple = "x86_64-pc-linux-gnu"

; Function Attrs: nounwind uwtable
define hidden void @_PyGC_ClearAllFreeLists(ptr noundef %0) local_unnamed_addr #0 {
  %2 = getelementptr inbounds nuw i8, ptr %0, i64 11032
  tail call void @_PyObject_ClearFreeLists(ptr noundef nonnull %2, i32 noundef 0) #2
  ret void
}

declare void @_PyObject_ClearFreeLists(ptr noundef, i32 noundef) local_unnamed_addr #1


!llvm.module.flags = !{!0, !1, !2, !3}

!0 = !{i32 1, !"wchar_size", i32 4}
!1 = !{i32 8, !"PIC Level", i32 2}
!2 = !{i32 7, !"PIE Level", i32 2}
!3 = !{i32 7, !"uwtable", i32 2}
